target datalayout = "e-m:e-p270:32:32-p271:32:32-p272:64:64-i64:64-i128:128-f80:128-n8:16:32:64-S128"
target triple = "x86_64-pc-linux-gnu"

%"class.cmsys::SystemInformationImplementation" = type <{ i32, %"struct.cmsys::SystemInformationImplementation::CPUFeatures", %"struct.cmsys::SystemInformationImplementation::ID", float, i32, i32, [4 x i8], %"class.std::__cxx11::basic_string", i64, i64, i64, i64, i64, %"class.std::__cxx11::basic_string", %"class.std::__cxx11::basic_string", %"class.std::__cxx11::basic_string", %"class.std::__cxx11::basic_string", %"class.std::__cxx11::basic_string", i8, [7 x i8] }>
%"struct.cmsys::SystemInformationImplementation::CPUFeatures" = type { i8, i8, i8, i8, i8, i8, i8, i8, i8, i8, i8, i8, i8, i32, i32, i32, i32, %"struct.cmsys::SystemInformationImplementation::CPUExtendedFeatures" }
%"struct.cmsys::SystemInformationImplementation::CPUExtendedFeatures" = type { i8, i8, i8, i8, i8, i32, i32, %"struct.cmsys::SystemInformationImplementation::CPUPowerManagement" }
%"struct.cmsys::SystemInformationImplementation::CPUPowerManagement" = type { i8, i8, i8 }
%"struct.cmsys::SystemInformationImplementation::ID" = type { i32, i32, i32, i32, i32, i32, %"class.std::__cxx11::basic_string", %"class.std::__cxx11::basic_string", %"class.std::__cxx11::basic_string", %"class.std::__cxx11::basic_string" }
%"class.std::__cxx11::basic_string" = type { %"struct.std::__cxx11::basic_string<char>::_Alloc_hider", i64, %union.anon }
%"struct.std::__cxx11::basic_string<char>::_Alloc_hider" = type { ptr }
%union.anon = type { i64, [8 x i8] }

@.str.20 = private unnamed_addr constant [4 x i8] c"IBM\00", align 1
@.str.21 = private unnamed_addr constant [9 x i8] c"Motorola\00", align 1
@.str.22 = private unnamed_addr constant [16 x i8] c"Hewlett-Packard\00", align 1
@.str.25 = private unnamed_addr constant [6 x i8] c"Apple\00", align 1
@.str.27 = private unnamed_addr constant [13 x i8] c"GenuineIntel\00", align 1
@.str.28 = private unnamed_addr constant [13 x i8] c"UMC UMC UMC \00", align 1
@.str.29 = private unnamed_addr constant [13 x i8] c"AuthenticAMD\00", align 1
@.str.30 = private unnamed_addr constant [13 x i8] c"AMD ISBETTER\00", align 1
@.str.31 = private unnamed_addr constant [13 x i8] c"HygonGenuine\00", align 1
@.str.32 = private unnamed_addr constant [13 x i8] c"CyrixInstead\00", align 1
@.str.33 = private unnamed_addr constant [13 x i8] c"NexGenDriven\00", align 1
@.str.34 = private unnamed_addr constant [13 x i8] c"CentaurHauls\00", align 1
@.str.35 = private unnamed_addr constant [13 x i8] c"  Shanghai  \00", align 1
@.str.36 = private unnamed_addr constant [13 x i8] c"RiseRiseRise\00", align 1
@.str.37 = private unnamed_addr constant [13 x i8] c"GenuineTMx86\00", align 1
@.str.38 = private unnamed_addr constant [13 x i8] c"TransmetaCPU\00", align 1
@.str.39 = private unnamed_addr constant [13 x i8] c"Geode By NSC\00", align 1
@.str.40 = private unnamed_addr constant [4 x i8] c"Sun\00", align 1
@.str.41 = private unnamed_addr constant [8 x i8] c"PA-RISC\00", align 1

; Function Attrs: inlinehint mustprogress nounwind uwtable
define linkonce_odr dso_local noundef zeroext i1 @_ZSteqIcSt11char_traitsIcESaIcEEbRKNSt7__cxx1112basic_stringIT_T0_T1_EEPKS5_(ptr noundef nonnull align 8 dereferenceable(32) %0, ptr noundef %1) #10 comdat {
  %3 = alloca ptr, align 8
  %4 = alloca ptr, align 8
  store ptr %0, ptr %3, align 8, !tbaa !71
  store ptr %1, ptr %4, align 8, !tbaa !69
  %5 = load ptr, ptr %3, align 8, !tbaa !71
  %6 = load ptr, ptr %4, align 8, !tbaa !69
  %7 = call noundef i32 @_ZNKSt7__cxx1112basic_stringIcSt11char_traitsIcESaIcEE7compareEPKc(ptr noundef nonnull align 8 dereferenceable(32) %5, ptr noundef %6) #3
  %8 = icmp eq i32 %7, 0
  ret i1 %8
}

; Function Attrs: mustprogress uwtable
define dso_local void @_ZN5cmsys31SystemInformationImplementation16FindManufacturerERKNSt7__cxx1112basic_stringIcSt11char_traitsIcESaIcEEE(ptr noundef nonnull align 8 dereferenceable(457) %0, ptr noundef nonnull align 8 dereferenceable(32) %1) #4 align 2 {
  %3 = alloca ptr, align 8
  %4 = alloca ptr, align 8
  store ptr %0, ptr %3, align 8, !tbaa !12
  store ptr %1, ptr %4, align 8, !tbaa !71
  %5 = load ptr, ptr %3, align 8
  %6 = getelementptr inbounds nuw %"class.cmsys::SystemInformationImplementation", ptr %5, i32 0, i32 2
  %7 = getelementptr inbounds nuw %"struct.cmsys::SystemInformationImplementation::ID", ptr %6, i32 0, i32 7
  %8 = call noundef zeroext i1 @_ZSteqIcSt11char_traitsIcESaIcEEbRKNSt7__cxx1112basic_stringIT_T0_T1_EEPKS5_(ptr noundef nonnull align 8 dereferenceable(32) %7, ptr noundef @.str.27)
  br i1 %8, label %9, label %11

9:                                                ; preds = %2
  %10 = getelementptr inbounds nuw %"class.cmsys::SystemInformationImplementation", ptr %5, i32 0, i32 0
  store i32 1, ptr %10, align 8, !tbaa !13
  br label %139

11:                                               ; preds = %2
  %12 = getelementptr inbounds nuw %"class.cmsys::SystemInformationImplementation", ptr %5, i32 0, i32 2
  %13 = getelementptr inbounds nuw %"struct.cmsys::SystemInformationImplementation::ID", ptr %12, i32 0, i32 7
  %14 = call noundef zeroext i1 @_ZSteqIcSt11char_traitsIcESaIcEEbRKNSt7__cxx1112basic_stringIT_T0_T1_EEPKS5_(ptr noundef nonnull align 8 dereferenceable(32) %13, ptr noundef @.str.28)
  br i1 %14, label %15, label %17

15:                                               ; preds = %11
  %16 = getelementptr inbounds nuw %"class.cmsys::SystemInformationImplementation", ptr %5, i32 0, i32 0
  store i32 3, ptr %16, align 8, !tbaa !13
  br label %138

17:                                               ; preds = %11
  %18 = getelementptr inbounds nuw %"class.cmsys::SystemInformationImplementation", ptr %5, i32 0, i32 2
  %19 = getelementptr inbounds nuw %"struct.cmsys::SystemInformationImplementation::ID", ptr %18, i32 0, i32 7
  %20 = call noundef zeroext i1 @_ZSteqIcSt11char_traitsIcESaIcEEbRKNSt7__cxx1112basic_stringIT_T0_T1_EEPKS5_(ptr noundef nonnull align 8 dereferenceable(32) %19, ptr noundef @.str.29)
  br i1 %20, label %21, label %23

21:                                               ; preds = %17
  %22 = getelementptr inbounds nuw %"class.cmsys::SystemInformationImplementation", ptr %5, i32 0, i32 0
  store i32 0, ptr %22, align 8, !tbaa !13
  br label %137

23:                                               ; preds = %17
  %24 = getelementptr inbounds nuw %"class.cmsys::SystemInformationImplementation", ptr %5, i32 0, i32 2
  %25 = getelementptr inbounds nuw %"struct.cmsys::SystemInformationImplementation::ID", ptr %24, i32 0, i32 7
  %26 = call noundef zeroext i1 @_ZSteqIcSt11char_traitsIcESaIcEEbRKNSt7__cxx1112basic_stringIT_T0_T1_EEPKS5_(ptr noundef nonnull align 8 dereferenceable(32) %25, ptr noundef @.str.30)
  br i1 %26, label %27, label %29

27:                                               ; preds = %23
  %28 = getelementptr inbounds nuw %"class.cmsys::SystemInformationImplementation", ptr %5, i32 0, i32 0
  store i32 0, ptr %28, align 8, !tbaa !13
  br label %136

29:                                               ; preds = %23
  %30 = getelementptr inbounds nuw %"class.cmsys::SystemInformationImplementation", ptr %5, i32 0, i32 2
  %31 = getelementptr inbounds nuw %"struct.cmsys::SystemInformationImplementation::ID", ptr %30, i32 0, i32 7
  %32 = call noundef zeroext i1 @_ZSteqIcSt11char_traitsIcESaIcEEbRKNSt7__cxx1112basic_stringIT_T0_T1_EEPKS5_(ptr noundef nonnull align 8 dereferenceable(32) %31, ptr noundef @.str.31)
  br i1 %32, label %33, label %35

33:                                               ; preds = %29
  %34 = getelementptr inbounds nuw %"class.cmsys::SystemInformationImplementation", ptr %5, i32 0, i32 0
  store i32 13, ptr %34, align 8, !tbaa !13
  br label %135

35:                                               ; preds = %29
  %36 = getelementptr inbounds nuw %"class.cmsys::SystemInformationImplementation", ptr %5, i32 0, i32 2
  %37 = getelementptr inbounds nuw %"struct.cmsys::SystemInformationImplementation::ID", ptr %36, i32 0, i32 7
  %38 = call noundef zeroext i1 @_ZSteqIcSt11char_traitsIcESaIcEEbRKNSt7__cxx1112basic_stringIT_T0_T1_EEPKS5_(ptr noundef nonnull align 8 dereferenceable(32) %37, ptr noundef @.str.32)
  br i1 %38, label %39, label %41

39:                                               ; preds = %35
  %40 = getelementptr inbounds nuw %"class.cmsys::SystemInformationImplementation", ptr %5, i32 0, i32 0
  store i32 4, ptr %40, align 8, !tbaa !13
  br label %134

41:                                               ; preds = %35
  %42 = getelementptr inbounds nuw %"class.cmsys::SystemInformationImplementation", ptr %5, i32 0, i32 2
  %43 = getelementptr inbounds nuw %"struct.cmsys::SystemInformationImplementation::ID", ptr %42, i32 0, i32 7
  %44 = call noundef zeroext i1 @_ZSteqIcSt11char_traitsIcESaIcEEbRKNSt7__cxx1112basic_stringIT_T0_T1_EEPKS5_(ptr noundef nonnull align 8 dereferenceable(32) %43, ptr noundef @.str.33)
  br i1 %44, label %45, label %47

45:                                               ; preds = %41
  %46 = getelementptr inbounds nuw %"class.cmsys::SystemInformationImplementation", ptr %5, i32 0, i32 0
  store i32 5, ptr %46, align 8, !tbaa !13
  br label %133

47:                                               ; preds = %41
  %48 = getelementptr inbounds nuw %"class.cmsys::SystemInformationImplementation", ptr %5, i32 0, i32 2
  %49 = getelementptr inbounds nuw %"struct.cmsys::SystemInformationImplementation::ID", ptr %48, i32 0, i32 7
  %50 = call noundef zeroext i1 @_ZSteqIcSt11char_traitsIcESaIcEEbRKNSt7__cxx1112basic_stringIT_T0_T1_EEPKS5_(ptr noundef nonnull align 8 dereferenceable(32) %49, ptr noundef @.str.34)
  br i1 %50, label %51, label %53

51:                                               ; preds = %47
  %52 = getelementptr inbounds nuw %"class.cmsys::SystemInformationImplementation", ptr %5, i32 0, i32 0
  store i32 6, ptr %52, align 8, !tbaa !13
  br label %132

53:                                               ; preds = %47
  %54 = getelementptr inbounds nuw %"class.cmsys::SystemInformationImplementation", ptr %5, i32 0, i32 2
  %55 = getelementptr inbounds nuw %"struct.cmsys::SystemInformationImplementation::ID", ptr %54, i32 0, i32 7
  %56 = call noundef zeroext i1 @_ZSteqIcSt11char_traitsIcESaIcEEbRKNSt7__cxx1112basic_stringIT_T0_T1_EEPKS5_(ptr noundef nonnull align 8 dereferenceable(32) %55, ptr noundef @.str.35)
  br i1 %56, label %57, label %59

57:                                               ; preds = %53
  %58 = getelementptr inbounds nuw %"class.cmsys::SystemInformationImplementation", ptr %5, i32 0, i32 0
  store i32 14, ptr %58, align 8, !tbaa !13
  br label %131

59:                                               ; preds = %53
  %60 = getelementptr inbounds nuw %"class.cmsys::SystemInformationImplementation", ptr %5, i32 0, i32 2
  %61 = getelementptr inbounds nuw %"struct.cmsys::SystemInformationImplementation::ID", ptr %60, i32 0, i32 7
  %62 = call noundef zeroext i1 @_ZSteqIcSt11char_traitsIcESaIcEEbRKNSt7__cxx1112basic_stringIT_T0_T1_EEPKS5_(ptr noundef nonnull align 8 dereferenceable(32) %61, ptr noundef @.str.36)
  br i1 %62, label %63, label %65

63:                                               ; preds = %59
  %64 = getelementptr inbounds nuw %"class.cmsys::SystemInformationImplementation", ptr %5, i32 0, i32 0
  store i32 7, ptr %64, align 8, !tbaa !13
  br label %130

65:                                               ; preds = %59
  %66 = getelementptr inbounds nuw %"class.cmsys::SystemInformationImplementation", ptr %5, i32 0, i32 2
  %67 = getelementptr inbounds nuw %"struct.cmsys::SystemInformationImplementation::ID", ptr %66, i32 0, i32 7
  %68 = call noundef zeroext i1 @_ZSteqIcSt11char_traitsIcESaIcEEbRKNSt7__cxx1112basic_stringIT_T0_T1_EEPKS5_(ptr noundef nonnull align 8 dereferenceable(32) %67, ptr noundef @.str.37)
  br i1 %68, label %69, label %71

69:                                               ; preds = %65
  %70 = getelementptr inbounds nuw %"class.cmsys::SystemInformationImplementation", ptr %5, i32 0, i32 0
  store i32 8, ptr %70, align 8, !tbaa !13
  br label %129

71:                                               ; preds = %65
  %72 = getelementptr inbounds nuw %"class.cmsys::SystemInformationImplementation", ptr %5, i32 0, i32 2
  %73 = getelementptr inbounds nuw %"struct.cmsys::SystemInformationImplementation::ID", ptr %72, i32 0, i32 7
  %74 = call noundef zeroext i1 @_ZSteqIcSt11char_traitsIcESaIcEEbRKNSt7__cxx1112basic_stringIT_T0_T1_EEPKS5_(ptr noundef nonnull align 8 dereferenceable(32) %73, ptr noundef @.str.38)
  br i1 %74, label %75, label %77

75:                                               ; preds = %71
  %76 = getelementptr inbounds nuw %"class.cmsys::SystemInformationImplementation", ptr %5, i32 0, i32 0
  store i32 8, ptr %76, align 8, !tbaa !13
  br label %128

77:                                               ; preds = %71
  %78 = getelementptr inbounds nuw %"class.cmsys::SystemInformationImplementation", ptr %5, i32 0, i32 2
  %79 = getelementptr inbounds nuw %"struct.cmsys::SystemInformationImplementation::ID", ptr %78, i32 0, i32 7
  %80 = call noundef zeroext i1 @_ZSteqIcSt11char_traitsIcESaIcEEbRKNSt7__cxx1112basic_stringIT_T0_T1_EEPKS5_(ptr noundef nonnull align 8 dereferenceable(32) %79, ptr noundef @.str.39)
  br i1 %80, label %81, label %83

81:                                               ; preds = %77
  %82 = getelementptr inbounds nuw %"class.cmsys::SystemInformationImplementation", ptr %5, i32 0, i32 0
  store i32 2, ptr %82, align 8, !tbaa !13
  br label %127

83:                                               ; preds = %77
  %84 = getelementptr inbounds nuw %"class.cmsys::SystemInformationImplementation", ptr %5, i32 0, i32 2
  %85 = getelementptr inbounds nuw %"struct.cmsys::SystemInformationImplementation::ID", ptr %84, i32 0, i32 7
  %86 = call noundef zeroext i1 @_ZSteqIcSt11char_traitsIcESaIcEEbRKNSt7__cxx1112basic_stringIT_T0_T1_EEPKS5_(ptr noundef nonnull align 8 dereferenceable(32) %85, ptr noundef @.str.40)
  br i1 %86, label %87, label %89

87:                                               ; preds = %83
  %88 = getelementptr inbounds nuw %"class.cmsys::SystemInformationImplementation", ptr %5, i32 0, i32 0
  store i32 9, ptr %88, align 8, !tbaa !13
  br label %126

89:                                               ; preds = %83
  %90 = getelementptr inbounds nuw %"class.cmsys::SystemInformationImplementation", ptr %5, i32 0, i32 2
  %91 = getelementptr inbounds nuw %"struct.cmsys::SystemInformationImplementation::ID", ptr %90, i32 0, i32 7
  %92 = call noundef zeroext i1 @_ZSteqIcSt11char_traitsIcESaIcEEbRKNSt7__cxx1112basic_stringIT_T0_T1_EEPKS5_(ptr noundef nonnull align 8 dereferenceable(32) %91, ptr noundef @.str.20)
  br i1 %92, label %93, label %95

93:                                               ; preds = %89
  %94 = getelementptr inbounds nuw %"class.cmsys::SystemInformationImplementation", ptr %5, i32 0, i32 0
  store i32 10, ptr %94, align 8, !tbaa !13
  br label %125

95:                                               ; preds = %89
  %96 = getelementptr inbounds nuw %"class.cmsys::SystemInformationImplementation", ptr %5, i32 0, i32 2
  %97 = getelementptr inbounds nuw %"struct.cmsys::SystemInformationImplementation::ID", ptr %96, i32 0, i32 7
  %98 = call noundef zeroext i1 @_ZSteqIcSt11char_traitsIcESaIcEEbRKNSt7__cxx1112basic_stringIT_T0_T1_EEPKS5_(ptr noundef nonnull align 8 dereferenceable(32) %97, ptr noundef @.str.22)
  br i1 %98, label %99, label %101

99:                                               ; preds = %95
  %100 = getelementptr inbounds nuw %"class.cmsys::SystemInformationImplementation", ptr %5, i32 0, i32 0
  store i32 12, ptr %100, align 8, !tbaa !13
  br label %124

101:                                              ; preds = %95
  %102 = getelementptr inbounds nuw %"class.cmsys::SystemInformationImplementation", ptr %5, i32 0, i32 2
  %103 = getelementptr inbounds nuw %"struct.cmsys::SystemInformationImplementation::ID", ptr %102, i32 0, i32 7
  %104 = call noundef zeroext i1 @_ZSteqIcSt11char_traitsIcESaIcEEbRKNSt7__cxx1112basic_stringIT_T0_T1_EEPKS5_(ptr noundef nonnull align 8 dereferenceable(32) %103, ptr noundef @.str.21)
  br i1 %104, label %105, label %107

105:                                              ; preds = %101
  %106 = getelementptr inbounds nuw %"class.cmsys::SystemInformationImplementation", ptr %5, i32 0, i32 0
  store i32 11, ptr %106, align 8, !tbaa !13
  br label %123

107:                                              ; preds = %101
  %108 = load ptr, ptr %4, align 8, !tbaa !71
  %109 = call noundef i32 @_ZNKSt7__cxx1112basic_stringIcSt11char_traitsIcESaIcEE7compareEmmPKc(ptr noundef nonnull align 8 dereferenceable(32) %108, i64 noundef 0, i64 noundef 7, ptr noundef @.str.41)
  %110 = icmp eq i32 %109, 0
  br i1 %110, label %111, label %113

111:                                              ; preds = %107
  %112 = getelementptr inbounds nuw %"class.cmsys::SystemInformationImplementation", ptr %5, i32 0, i32 0
  store i32 12, ptr %112, align 8, !tbaa !13
  br label %122

113:                                              ; preds = %107
  %114 = getelementptr inbounds nuw %"class.cmsys::SystemInformationImplementation", ptr %5, i32 0, i32 2
  %115 = getelementptr inbounds nuw %"struct.cmsys::SystemInformationImplementation::ID", ptr %114, i32 0, i32 7
  %116 = call noundef zeroext i1 @_ZSteqIcSt11char_traitsIcESaIcEEbRKNSt7__cxx1112basic_stringIT_T0_T1_EEPKS5_(ptr noundef nonnull align 8 dereferenceable(32) %115, ptr noundef @.str.25)
  br i1 %116, label %117, label %119

117:                                              ; preds = %113
  %118 = getelementptr inbounds nuw %"class.cmsys::SystemInformationImplementation", ptr %5, i32 0, i32 0
  store i32 15, ptr %118, align 8, !tbaa !13
  br label %121

119:                                              ; preds = %113
  %120 = getelementptr inbounds nuw %"class.cmsys::SystemInformationImplementation", ptr %5, i32 0, i32 0
  store i32 16, ptr %120, align 8, !tbaa !13
  br label %121

121:                                              ; preds = %119, %117
  br label %122

122:                                              ; preds = %121, %111
  br label %123

123:                                              ; preds = %122, %105
  br label %124

124:                                              ; preds = %123, %99
  br label %125

125:                                              ; preds = %124, %93
  br label %126

126:                                              ; preds = %125, %87
  br label %127

127:                                              ; preds = %126, %81
  br label %128

128:                                              ; preds = %127, %75
  br label %129

129:                                              ; preds = %128, %69
  br label %130

130:                                              ; preds = %129, %63
  br label %131

131:                                              ; preds = %130, %57
  br label %132

132:                                              ; preds = %131, %51
  br label %133

133:                                              ; preds = %132, %45
  br label %134

134:                                              ; preds = %133, %39
  br label %135

135:                                              ; preds = %134, %33
  br label %136

136:                                              ; preds = %135, %27
  br label %137

137:                                              ; preds = %136, %21
  br label %138

138:                                              ; preds = %137, %15
  br label %139

139:                                              ; preds = %138, %9
  ret void
}