; Function Attrs: mustprogress uwtable
define dso_local void @_ZN5cmsys31SystemInformationImplementation16FindManufacturerERKNSt7__cxx1112basic_stringIcSt11char_traitsIcESaIcEEE(ptr noundef nonnull align 8 dereferenceable(457) %0, ptr noundef nonnull align 8 dereferenceable(32) %1) local_unnamed_addr #3 align 2 {
  %3 = getelementptr inbounds nuw i8, ptr %0, i64 112
  %4 = tail call noundef i32 @_ZNKSt7__cxx1112basic_stringIcSt11char_traitsIcESaIcEE7compareEPKc(ptr noundef nonnull align 8 dereferenceable(32) %3, ptr noundef nonnull @.str.27) #34
  %5 = icmp eq i32 %4, 0
  br i1 %5, label %60, label %6

6:                                                ; preds = %2
  %7 = tail call noundef i32 @_ZNKSt7__cxx1112basic_stringIcSt11char_traitsIcESaIcEE7compareEPKc(ptr noundef nonnull align 8 dereferenceable(32) %3, ptr noundef nonnull @.str.28) #34
  %8 = icmp eq i32 %7, 0
  br i1 %8, label %60, label %9

9:                                                ; preds = %6
  %10 = tail call noundef i32 @_ZNKSt7__cxx1112basic_stringIcSt11char_traitsIcESaIcEE7compareEPKc(ptr noundef nonnull align 8 dereferenceable(32) %3, ptr noundef nonnull @.str.29) #34
  %11 = icmp eq i32 %10, 0
  br i1 %11, label %60, label %12

12:                                               ; preds = %9
  %13 = tail call noundef i32 @_ZNKSt7__cxx1112basic_stringIcSt11char_traitsIcESaIcEE7compareEPKc(ptr noundef nonnull align 8 dereferenceable(32) %3, ptr noundef nonnull @.str.30) #34
  %14 = icmp eq i32 %13, 0
  br i1 %14, label %60, label %15

15:                                               ; preds = %12
  %16 = tail call noundef i32 @_ZNKSt7__cxx1112basic_stringIcSt11char_traitsIcESaIcEE7compareEPKc(ptr noundef nonnull align 8 dereferenceable(32) %3, ptr noundef nonnull @.str.31) #34
  %17 = icmp eq i32 %16, 0
  br i1 %17, label %60, label %18

18:                                               ; preds = %15
  %19 = tail call noundef i32 @_ZNKSt7__cxx1112basic_stringIcSt11char_traitsIcESaIcEE7compareEPKc(ptr noundef nonnull align 8 dereferenceable(32) %3, ptr noundef nonnull @.str.32) #34
  %20 = icmp eq i32 %19, 0
  br i1 %20, label %60, label %21

21:                                               ; preds = %18
  %22 = tail call noundef i32 @_ZNKSt7__cxx1112basic_stringIcSt11char_traitsIcESaIcEE7compareEPKc(ptr noundef nonnull align 8 dereferenceable(32) %3, ptr noundef nonnull @.str.33) #34
  %23 = icmp eq i32 %22, 0
  br i1 %23, label %60, label %24

24:                                               ; preds = %21
  %25 = tail call noundef i32 @_ZNKSt7__cxx1112basic_stringIcSt11char_traitsIcESaIcEE7compareEPKc(ptr noundef nonnull align 8 dereferenceable(32) %3, ptr noundef nonnull @.str.34) #34
  %26 = icmp eq i32 %25, 0
  br i1 %26, label %60, label %27

27:                                               ; preds = %24
  %28 = tail call noundef i32 @_ZNKSt7__cxx1112basic_stringIcSt11char_traitsIcESaIcEE7compareEPKc(ptr noundef nonnull align 8 dereferenceable(32) %3, ptr noundef nonnull @.str.35) #34
  %29 = icmp eq i32 %28, 0
  br i1 %29, label %60, label %30

30:                                               ; preds = %27
  %31 = tail call noundef i32 @_ZNKSt7__cxx1112basic_stringIcSt11char_traitsIcESaIcEE7compareEPKc(ptr noundef nonnull align 8 dereferenceable(32) %3, ptr noundef nonnull @.str.36) #34
  %32 = icmp eq i32 %31, 0
  br i1 %32, label %60, label %33

33:                                               ; preds = %30
  %34 = tail call noundef i32 @_ZNKSt7__cxx1112basic_stringIcSt11char_traitsIcESaIcEE7compareEPKc(ptr noundef nonnull align 8 dereferenceable(32) %3, ptr noundef nonnull @.str.37) #34
  %35 = icmp eq i32 %34, 0
  br i1 %35, label %60, label %36

36:                                               ; preds = %33
  %37 = tail call noundef i32 @_ZNKSt7__cxx1112basic_stringIcSt11char_traitsIcESaIcEE7compareEPKc(ptr noundef nonnull align 8 dereferenceable(32) %3, ptr noundef nonnull @.str.38) #34
  %38 = icmp eq i32 %37, 0
  br i1 %38, label %60, label %39

39:                                               ; preds = %36
  %40 = tail call noundef i32 @_ZNKSt7__cxx1112basic_stringIcSt11char_traitsIcESaIcEE7compareEPKc(ptr noundef nonnull align 8 dereferenceable(32) %3, ptr noundef nonnull @.str.39) #34
  %41 = icmp eq i32 %40, 0
  br i1 %41, label %60, label %42

42:                                               ; preds = %39
  %43 = tail call noundef i32 @_ZNKSt7__cxx1112basic_stringIcSt11char_traitsIcESaIcEE7compareEPKc(ptr noundef nonnull align 8 dereferenceable(32) %3, ptr noundef nonnull @.str.40) #34
  %44 = icmp eq i32 %43, 0
  br i1 %44, label %60, label %45

45:                                               ; preds = %42
  %46 = tail call noundef i32 @_ZNKSt7__cxx1112basic_stringIcSt11char_traitsIcESaIcEE7compareEPKc(ptr noundef nonnull align 8 dereferenceable(32) %3, ptr noundef nonnull @.str.20) #34
  %47 = icmp eq i32 %46, 0
  br i1 %47, label %60, label %48

48:                                               ; preds = %45
  %49 = tail call noundef i32 @_ZNKSt7__cxx1112basic_stringIcSt11char_traitsIcESaIcEE7compareEPKc(ptr noundef nonnull align 8 dereferenceable(32) %3, ptr noundef nonnull @.str.22) #34
  %50 = icmp eq i32 %49, 0
  br i1 %50, label %60, label %51

51:                                               ; preds = %48
  %52 = tail call noundef i32 @_ZNKSt7__cxx1112basic_stringIcSt11char_traitsIcESaIcEE7compareEPKc(ptr noundef nonnull align 8 dereferenceable(32) %3, ptr noundef nonnull @.str.21) #34
  %53 = icmp eq i32 %52, 0
  br i1 %53, label %60, label %54

54:                                               ; preds = %51
  %55 = tail call noundef i32 @_ZNKSt7__cxx1112basic_stringIcSt11char_traitsIcESaIcEE7compareEmmPKc(ptr noundef nonnull align 8 dereferenceable(32) %1, i64 noundef 0, i64 noundef 7, ptr noundef nonnull @.str.41)
  %56 = icmp eq i32 %55, 0
  br i1 %56, label %60, label %57

57:                                               ; preds = %54
  %58 = tail call noundef i32 @_ZNKSt7__cxx1112basic_stringIcSt11char_traitsIcESaIcEE7compareEPKc(ptr noundef nonnull align 8 dereferenceable(32) %3, ptr noundef nonnull @.str.25) #34
  %59 = icmp eq i32 %58, 0
  %. = select i1 %59, i32 15, i32 16
  br label %60

60:                                               ; preds = %57, %54, %51, %48, %45, %42, %39, %36, %33, %30, %27, %24, %21, %18, %15, %12, %9, %6, %2
  %.sink = phi i32 [ 1, %2 ], [ 3, %6 ], [ 0, %9 ], [ 0, %12 ], [ 13, %15 ], [ 4, %18 ], [ 5, %21 ], [ 6, %24 ], [ 14, %27 ], [ 7, %30 ], [ 8, %33 ], [ 8, %36 ], [ 2, %39 ], [ 9, %42 ], [ 10, %45 ], [ 12, %48 ], [ 11, %51 ], [ 12, %54 ], [ %., %57 ]
  store i32 %.sink, ptr %0, align 8, !tbaa !17
  ret void
}